; Function Attrs: mustprogress uwtable
define dso_local void @_ZNSt3__117__assoc_sub_state13set_exceptionESt13exception_ptr(ptr noundef nonnull align 8 dereferenceable(116) %0, ptr noundef %1) local_unnamed_addr #1 align 2 personality ptr @__gxx_personality_v0 {
  %3 = alloca %"class.std::exception_ptr", align 8
  %4 = getelementptr inbounds nuw i8, ptr %0, i64 24
  tail call void @_ZNSt3__15mutex4lockEv(ptr noundef nonnull align 8 dereferenceable(40) %4)
  %5 = getelementptr inbounds nuw i8, ptr %0, i64 112
  %6 = load i32, ptr %5, align 8, !tbaa !16
  %7 = and i32 %6, 1
  %.not.i = icmp eq i32 %7, 0
  br i1 %.not.i, label %_ZNKSt3__117__assoc_sub_state11__has_valueB8ne210000Ev.exit, label %_ZNKSt3__117__assoc_sub_state11__has_valueB8ne210000Ev.exit.thread

_ZNKSt3__117__assoc_sub_state11__has_valueB8ne210000Ev.exit: ; preds = %2
  %8 = getelementptr inbounds nuw i8, ptr %0, i64 16
  call void @llvm.lifetime.start.p0(i64 8, ptr nonnull %3) #21
  store ptr null, ptr %3, align 8, !tbaa !23
  %9 = load ptr, ptr %8, align 8, !tbaa !23
  %.not = icmp eq ptr %9, null
  call void @_ZNSt13exception_ptrD1Ev(ptr noundef nonnull align 8 dereferenceable(8) %3) #21
  call void @llvm.lifetime.end.p0(i64 8, ptr nonnull %3) #21
  br i1 %.not, label %_ZNSt3__111unique_lockINS_5mutexEED2B8ne210000Ev.exit2, label %_ZNKSt3__117__assoc_sub_state11__has_valueB8ne210000Ev.exit.thread

_ZNKSt3__117__assoc_sub_state11__has_valueB8ne210000Ev.exit.thread: ; preds = %2, %_ZNKSt3__117__assoc_sub_state11__has_valueB8ne210000Ev.exit
  invoke void @_ZNSt3__120__throw_future_errorB8ne210000ENS_11future_errcE(i32 noundef 2) #23
          to label %10 unwind label %_ZNSt3__111unique_lockINS_5mutexEED2B8ne210000Ev.exit

10:                                               ; preds = %_ZNKSt3__117__assoc_sub_state11__has_valueB8ne210000Ev.exit.thread
  unreachable

_ZNSt3__111unique_lockINS_5mutexEED2B8ne210000Ev.exit: ; preds = %_ZNKSt3__117__assoc_sub_state11__has_valueB8ne210000Ev.exit.thread
  %11 = landingpad { ptr, i32 }
          cleanup
  call void @_ZNSt3__15mutex6unlockEv(ptr noundef nonnull align 8 dereferenceable(40) %4) #21
  resume { ptr, i32 } %11

_ZNSt3__111unique_lockINS_5mutexEED2B8ne210000Ev.exit2: ; preds = %_ZNKSt3__117__assoc_sub_state11__has_valueB8ne210000Ev.exit
  %12 = call noundef nonnull align 8 dereferenceable(8) ptr @_ZNSt13exception_ptraSERKS_(ptr noundef nonnull align 8 dereferenceable(8) %8, ptr noundef nonnull align 8 dereferenceable(8) %1) #21
  %13 = load i32, ptr %5, align 8, !tbaa !16
  %14 = or i32 %13, 4
  store i32 %14, ptr %5, align 8, !tbaa !16
  %15 = getelementptr inbounds nuw i8, ptr %0, i64 64
  call void @_ZNSt3__118condition_variable10notify_allEv(ptr noundef nonnull align 8 dereferenceable(48) %15) #21
  call void @_ZNSt3__15mutex6unlockEv(ptr noundef nonnull align 8 dereferenceable(40) %4) #21
  ret void
}